; Function Attrs: mustprogress uwtable
define noundef zeroext i1 @pkpy_push_float(ptr noundef %0, double noundef %1) local_unnamed_addr #4 {
  %3 = alloca double, align 8
  %4 = getelementptr inbounds nuw i8, ptr %0, i64 264488
  %5 = load ptr, ptr %4, align 8
  %.not = icmp eq ptr %5, null
  br i1 %.not, label %6, label %12

6:                                                ; preds = %2
  call void @llvm.lifetime.start.p0(i64 8, ptr nonnull %3)
  store double %1, ptr %3, align 8
  %7 = getelementptr inbounds nuw i8, ptr %0, i64 16
  %8 = call noundef ptr @_ZN4pkpy11ManagedHeap5gcnewIdJRdEEEPNS_8PyObjectENS_4TypeEDpOT0_(ptr noundef nonnull align 8 dereferenceable(84) %7, i16 3, ptr noundef nonnull align 8 dereferenceable(8) %3)
  call void @llvm.lifetime.end.p0(i64 8, ptr nonnull %3)
  %9 = getelementptr inbounds nuw i8, ptr %0, i64 264296
  %10 = load ptr, ptr %9, align 8
  %11 = getelementptr inbounds nuw i8, ptr %10, i64 8
  store ptr %11, ptr %9, align 8
  store ptr %8, ptr %10, align 8
  br label %12

12:                                               ; preds = %2, %6
  ret i1 %.not
}